; Function Attrs: mustprogress uwtable
define void @_ZNK6casadi9Assertion10ad_reverseERKSt6vectorIS1_INS_2MXESaIS2_EESaIS4_EERS6_(ptr nocapture nonnull readnone align 8 %0, ptr nocapture noundef nonnull readonly align 8 dereferenceable(24) %1, ptr nocapture noundef nonnull readonly align 8 dereferenceable(24) %2) unnamed_addr #3 align 2 personality ptr @__gxx_personality_v0 {
  %4 = alloca %"class.casadi::MX", align 8
  %5 = getelementptr inbounds i8, ptr %1, i64 8
  %6 = load ptr, ptr %5, align 8
  %7 = load ptr, ptr %1, align 8
  %.not = icmp eq ptr %6, %7
  br i1 %.not, label %._crit_edge, label %.lr.ph

.lr.ph:                                           ; preds = %3, %_ZN6casadi17GenericExpressionINS_2MXEEpLERKS1_.exit
  %8 = phi ptr [ %19, %_ZN6casadi17GenericExpressionINS_2MXEEpLERKS1_.exit ], [ %7, %3 ]
  %.06 = phi i64 [ %17, %_ZN6casadi17GenericExpressionINS_2MXEEpLERKS1_.exit ], [ 0, %3 ]
  %9 = getelementptr inbounds %"class.std::vector", ptr %8, i64 %.06
  %10 = load ptr, ptr %9, align 8
  %11 = load ptr, ptr %2, align 8
  %12 = getelementptr inbounds %"class.std::vector", ptr %11, i64 %.06
  %13 = load ptr, ptr %12, align 8
  call void @llvm.lifetime.start.p0(i64 8, ptr nonnull %4)
  call void @_ZN6casadi2MX6binaryExRKS0_S2_(ptr dead_on_unwind nonnull writable sret(%"class.casadi::MX") align 8 %4, i64 noundef 1, ptr noundef nonnull align 8 dereferenceable(8) %13, ptr noundef nonnull align 8 dereferenceable(8) %10)
  %14 = invoke noundef nonnull align 8 dereferenceable(8) ptr @_ZN6casadi12SharedObjectaSERKS0_(ptr noundef nonnull align 8 dereferenceable(8) %13, ptr noundef nonnull align 8 dereferenceable(8) %4)
          to label %_ZN6casadi17GenericExpressionINS_2MXEEpLERKS1_.exit unwind label %15

15:                                               ; preds = %.lr.ph
  %16 = landingpad { ptr, i32 }
          cleanup
  call void @_ZN6casadi2MXD1Ev(ptr noundef nonnull align 8 dereferenceable(8) %4) #14
  resume { ptr, i32 } %16

_ZN6casadi17GenericExpressionINS_2MXEEpLERKS1_.exit: ; preds = %.lr.ph
  call void @_ZN6casadi2MXD1Ev(ptr noundef nonnull align 8 dereferenceable(8) %4) #14
  call void @llvm.lifetime.end.p0(i64 8, ptr nonnull %4)
  %17 = add nuw nsw i64 %.06, 1
  %18 = load ptr, ptr %5, align 8
  %19 = load ptr, ptr %1, align 8
  %20 = ptrtoint ptr %18 to i64
  %21 = ptrtoint ptr %19 to i64
  %22 = sub i64 %20, %21
  %23 = sdiv exact i64 %22, 24
  %24 = icmp ult i64 %17, %23
  br i1 %24, label %.lr.ph, label %._crit_edge, !llvm.loop !10

._crit_edge:                                      ; preds = %_ZN6casadi17GenericExpressionINS_2MXEEpLERKS1_.exit, %3
  ret void
}